#include <math.h>
#include <stdio.h>
#include <stdlib.h>
#include <string.h>

int main()
{
	char a[100],b[100];
	int i,j,l1,l2,ia[128]={0},ib[128]={0};
	scanf("%s%s",a,b);
	l1=strlen(a);
	l2=strlen(b);
	if(l1!=l2)printf("NO");
	else
	{
		for(j=0;j<l1;j++)
		    for(i=1;i<=127;i++)
				if(a[j]==i)
				{
					ia[i]++;
					break;
				}
		for(j=0;j<l1;j++)
		    for(i=1;i<=127;i++)
				if(b[j]==i)
				{
					ib[i]++;
					break;
				}
		for(i=1;i<128;i++)
			if(ia[i]!=ib[i])break;
		if(i==128)printf("YES");
		else printf("NO");
	}
	return 0;
}