; ModuleID = '36/1166.c'
source_filename = "36/1166.c"
target datalayout = "e-m:e-p270:32:32-p271:32:32-p272:64:64-i64:64-f80:128-n8:16:32:64-S128"
target triple = "x86_64-pc-linux-gnu"

@.str = private unnamed_addr constant [5 x i8] c"%s%s\00", align 1
@.str.1 = private unnamed_addr constant [3 x i8] c"NO\00", align 1
@.str.2 = private unnamed_addr constant [4 x i8] c"YES\00", align 1

; Function Attrs: noinline nounwind uwtable
define dso_local i32 @main() #0 {
  %1 = alloca i32, align 4
  %2 = alloca [100 x i8], align 16
  %3 = alloca [100 x i8], align 16
  %4 = alloca i32, align 4
  %5 = alloca i32, align 4
  %6 = alloca i32, align 4
  %7 = alloca i32, align 4
  %8 = alloca [128 x i32], align 16
  %9 = alloca [128 x i32], align 16
  store i32 0, i32* %1, align 4
  %10 = bitcast [128 x i32]* %8 to i8*
  call void @llvm.memset.p0i8.i64(i8* align 16 %10, i8 0, i64 512, i1 false)
  %11 = bitcast [128 x i32]* %9 to i8*
  call void @llvm.memset.p0i8.i64(i8* align 16 %11, i8 0, i64 512, i1 false)
  %12 = getelementptr inbounds [100 x i8], [100 x i8]* %2, i64 0, i64 0
  %13 = getelementptr inbounds [100 x i8], [100 x i8]* %3, i64 0, i64 0
  %14 = call i32 (i8*, ...) @__isoc99_scanf(i8* getelementptr inbounds ([5 x i8], [5 x i8]* @.str, i64 0, i64 0), i8* %12, i8* %13)
  %15 = getelementptr inbounds [100 x i8], [100 x i8]* %2, i64 0, i64 0
  %16 = call i64 @strlen(i8* %15) #4
  %17 = trunc i64 %16 to i32
  store i32 %17, i32* %6, align 4
  %18 = getelementptr inbounds [100 x i8], [100 x i8]* %3, i64 0, i64 0
  %19 = call i64 @strlen(i8* %18) #4
  %20 = trunc i64 %19 to i32
  store i32 %20, i32* %7, align 4
  %21 = load i32, i32* %6, align 4
  %22 = load i32, i32* %7, align 4
  %23 = icmp ne i32 %21, %22
  br i1 %23, label %24, label %26

24:                                               ; preds = %0
  %25 = call i32 (i8*, ...) @printf(i8* getelementptr inbounds ([3 x i8], [3 x i8]* @.str.1, i64 0, i64 0))
  br label %115

26:                                               ; preds = %0
  store i32 0, i32* %5, align 4
  br label %27

27:                                               ; preds = %54, %26
  %28 = load i32, i32* %5, align 4
  %29 = load i32, i32* %6, align 4
  %30 = icmp slt i32 %28, %29
  br i1 %30, label %31, label %57

31:                                               ; preds = %27
  store i32 1, i32* %4, align 4
  br label %32

32:                                               ; preds = %50, %31
  %33 = load i32, i32* %4, align 4
  %34 = icmp sle i32 %33, 127
  br i1 %34, label %35, label %53

35:                                               ; preds = %32
  %36 = load i32, i32* %5, align 4
  %37 = sext i32 %36 to i64
  %38 = getelementptr inbounds [100 x i8], [100 x i8]* %2, i64 0, i64 %37
  %39 = load i8, i8* %38, align 1
  %40 = sext i8 %39 to i32
  %41 = load i32, i32* %4, align 4
  %42 = icmp eq i32 %40, %41
  br i1 %42, label %43, label %49

43:                                               ; preds = %35
  %44 = load i32, i32* %4, align 4
  %45 = sext i32 %44 to i64
  %46 = getelementptr inbounds [128 x i32], [128 x i32]* %8, i64 0, i64 %45
  %47 = load i32, i32* %46, align 4
  %48 = add nsw i32 %47, 1
  store i32 %48, i32* %46, align 4
  br label %53

49:                                               ; preds = %35
  br label %50

50:                                               ; preds = %49
  %51 = load i32, i32* %4, align 4
  %52 = add nsw i32 %51, 1
  store i32 %52, i32* %4, align 4
  br label %32

53:                                               ; preds = %43, %32
  br label %54

54:                                               ; preds = %53
  %55 = load i32, i32* %5, align 4
  %56 = add nsw i32 %55, 1
  store i32 %56, i32* %5, align 4
  br label %27

57:                                               ; preds = %27
  store i32 0, i32* %5, align 4
  br label %58

58:                                               ; preds = %85, %57
  %59 = load i32, i32* %5, align 4
  %60 = load i32, i32* %6, align 4
  %61 = icmp slt i32 %59, %60
  br i1 %61, label %62, label %88

62:                                               ; preds = %58
  store i32 1, i32* %4, align 4
  br label %63

63:                                               ; preds = %81, %62
  %64 = load i32, i32* %4, align 4
  %65 = icmp sle i32 %64, 127
  br i1 %65, label %66, label %84

66:                                               ; preds = %63
  %67 = load i32, i32* %5, align 4
  %68 = sext i32 %67 to i64
  %69 = getelementptr inbounds [100 x i8], [100 x i8]* %3, i64 0, i64 %68
  %70 = load i8, i8* %69, align 1
  %71 = sext i8 %70 to i32
  %72 = load i32, i32* %4, align 4
  %73 = icmp eq i32 %71, %72
  br i1 %73, label %74, label %80

74:                                               ; preds = %66
  %75 = load i32, i32* %4, align 4
  %76 = sext i32 %75 to i64
  %77 = getelementptr inbounds [128 x i32], [128 x i32]* %9, i64 0, i64 %76
  %78 = load i32, i32* %77, align 4
  %79 = add nsw i32 %78, 1
  store i32 %79, i32* %77, align 4
  br label %84

80:                                               ; preds = %66
  br label %81

81:                                               ; preds = %80
  %82 = load i32, i32* %4, align 4
  %83 = add nsw i32 %82, 1
  store i32 %83, i32* %4, align 4
  br label %63

84:                                               ; preds = %74, %63
  br label %85

85:                                               ; preds = %84
  %86 = load i32, i32* %5, align 4
  %87 = add nsw i32 %86, 1
  store i32 %87, i32* %5, align 4
  br label %58

88:                                               ; preds = %58
  store i32 1, i32* %4, align 4
  br label %89

89:                                               ; preds = %104, %88
  %90 = load i32, i32* %4, align 4
  %91 = icmp slt i32 %90, 128
  br i1 %91, label %92, label %107

92:                                               ; preds = %89
  %93 = load i32, i32* %4, align 4
  %94 = sext i32 %93 to i64
  %95 = getelementptr inbounds [128 x i32], [128 x i32]* %8, i64 0, i64 %94
  %96 = load i32, i32* %95, align 4
  %97 = load i32, i32* %4, align 4
  %98 = sext i32 %97 to i64
  %99 = getelementptr inbounds [128 x i32], [128 x i32]* %9, i64 0, i64 %98
  %100 = load i32, i32* %99, align 4
  %101 = icmp ne i32 %96, %100
  br i1 %101, label %102, label %103

102:                                              ; preds = %92
  br label %107

103:                                              ; preds = %92
  br label %104

104:                                              ; preds = %103
  %105 = load i32, i32* %4, align 4
  %106 = add nsw i32 %105, 1
  store i32 %106, i32* %4, align 4
  br label %89

107:                                              ; preds = %102, %89
  %108 = load i32, i32* %4, align 4
  %109 = icmp eq i32 %108, 128
  br i1 %109, label %110, label %112

110:                                              ; preds = %107
  %111 = call i32 (i8*, ...) @printf(i8* getelementptr inbounds ([4 x i8], [4 x i8]* @.str.2, i64 0, i64 0))
  br label %114

112:                                              ; preds = %107
  %113 = call i32 (i8*, ...) @printf(i8* getelementptr inbounds ([3 x i8], [3 x i8]* @.str.1, i64 0, i64 0))
  br label %114

114:                                              ; preds = %112, %110
  br label %115

115:                                              ; preds = %114, %24
  ret i32 0
}

; Function Attrs: argmemonly nounwind willreturn
declare void @llvm.memset.p0i8.i64(i8* nocapture writeonly, i8, i64, i1 immarg) #1

declare dso_local i32 @__isoc99_scanf(i8*, ...) #2

; Function Attrs: nounwind readonly
declare dso_local i64 @strlen(i8*) #3

declare dso_local i32 @printf(i8*, ...) #2


!llvm.module.flags = !{!0}
!llvm.ident = !{!1}

!0 = !{i32 1, !"wchar_size", i32 4}
!1 = !{!"clang version 10.0.0-4ubuntu1 "}
